target datalayout = "e-m:e-p270:32:32-p271:32:32-p272:64:64-i64:64-i128:128-f80:128-n8:16:32:64-S128"
target triple = "x86_64-pc-linux-gnu"

%struct.sqlite3_vtab_cursor = type { ptr }
%struct.completion_cursor = type { %struct.sqlite3_vtab_cursor, ptr, i32, i32, ptr, ptr, ptr, i32, ptr, i64, i32, i32 }

@.str.47 = private unnamed_addr constant [3 x i8] c"%s\00", align 1
@.str.219 = private unnamed_addr constant [5 x i8] c"%.*s\00", align 1

; Function Attrs: nounwind uwtable
define internal void @completionCursorReset(ptr noundef %0) #0 {
  %2 = alloca ptr, align 8
  store ptr %0, ptr %2, align 8, !tbaa !757
  %3 = load ptr, ptr %2, align 8, !tbaa !757
  %4 = getelementptr inbounds nuw %struct.completion_cursor, ptr %3, i32 0, i32 4
  %5 = load ptr, ptr %4, align 8, !tbaa !762
  call void @sqlite3_free(ptr noundef %5)
  %6 = load ptr, ptr %2, align 8, !tbaa !757
  %7 = getelementptr inbounds nuw %struct.completion_cursor, ptr %6, i32 0, i32 4
  store ptr null, ptr %7, align 8, !tbaa !762
  %8 = load ptr, ptr %2, align 8, !tbaa !757
  %9 = getelementptr inbounds nuw %struct.completion_cursor, ptr %8, i32 0, i32 2
  store i32 0, ptr %9, align 8, !tbaa !761
  %10 = load ptr, ptr %2, align 8, !tbaa !757
  %11 = getelementptr inbounds nuw %struct.completion_cursor, ptr %10, i32 0, i32 5
  %12 = load ptr, ptr %11, align 8, !tbaa !764
  call void @sqlite3_free(ptr noundef %12)
  %13 = load ptr, ptr %2, align 8, !tbaa !757
  %14 = getelementptr inbounds nuw %struct.completion_cursor, ptr %13, i32 0, i32 5
  store ptr null, ptr %14, align 8, !tbaa !764
  %15 = load ptr, ptr %2, align 8, !tbaa !757
  %16 = getelementptr inbounds nuw %struct.completion_cursor, ptr %15, i32 0, i32 3
  store i32 0, ptr %16, align 4, !tbaa !763
  %17 = load ptr, ptr %2, align 8, !tbaa !757
  %18 = getelementptr inbounds nuw %struct.completion_cursor, ptr %17, i32 0, i32 8
  %19 = load ptr, ptr %18, align 8, !tbaa !770
  %20 = call i32 @sqlite3_finalize(ptr noundef %19)
  %21 = load ptr, ptr %2, align 8, !tbaa !757
  %22 = getelementptr inbounds nuw %struct.completion_cursor, ptr %21, i32 0, i32 8
  store ptr null, ptr %22, align 8, !tbaa !770
  %23 = load ptr, ptr %2, align 8, !tbaa !757
  %24 = getelementptr inbounds nuw %struct.completion_cursor, ptr %23, i32 0, i32 11
  store i32 0, ptr %24, align 4, !tbaa !768
  ret void
}

; Function Attrs: nounwind uwtable
define internal i32 @completionFilter(ptr noundef %0, i32 noundef %1, ptr noundef %2, i32 noundef %3, ptr noundef %4) #0 {
  %6 = alloca i32, align 4
  %7 = alloca ptr, align 8
  %8 = alloca i32, align 4
  %9 = alloca ptr, align 8
  %10 = alloca i32, align 4
  %11 = alloca ptr, align 8
  %12 = alloca ptr, align 8
  %13 = alloca i32, align 4
  %14 = alloca i32, align 4
  %15 = alloca i32, align 4
  store ptr %0, ptr %7, align 8, !tbaa !650
  store i32 %1, ptr %8, align 4, !tbaa !3
  store ptr %2, ptr %9, align 8, !tbaa !36
  store i32 %3, ptr %10, align 4, !tbaa !3
  store ptr %4, ptr %11, align 8, !tbaa !27
  call void @llvm.lifetime.start.p0(i64 8, ptr %12) #14
  %16 = load ptr, ptr %7, align 8, !tbaa !650
  store ptr %16, ptr %12, align 8, !tbaa !757
  call void @llvm.lifetime.start.p0(i64 4, ptr %13) #14
  store i32 0, ptr %13, align 4, !tbaa !3
  %17 = load ptr, ptr %12, align 8, !tbaa !757
  call void @completionCursorReset(ptr noundef %17)
  %18 = load i32, ptr %8, align 4, !tbaa !3
  %19 = and i32 %18, 1
  %20 = icmp ne i32 %19, 0
  br i1 %20, label %21, label %51

21:                                               ; preds = %5
  %22 = load ptr, ptr %11, align 8, !tbaa !27
  %23 = load i32, ptr %13, align 4, !tbaa !3
  %24 = sext i32 %23 to i64
  %25 = getelementptr inbounds ptr, ptr %22, i64 %24
  %26 = load ptr, ptr %25, align 8, !tbaa !29
  %27 = call i32 @sqlite3_value_bytes(ptr noundef %26)
  %28 = load ptr, ptr %12, align 8, !tbaa !757
  %29 = getelementptr inbounds nuw %struct.completion_cursor, ptr %28, i32 0, i32 2
  store i32 %27, ptr %29, align 8, !tbaa !761
  %30 = load ptr, ptr %12, align 8, !tbaa !757
  %31 = getelementptr inbounds nuw %struct.completion_cursor, ptr %30, i32 0, i32 2
  %32 = load i32, ptr %31, align 8, !tbaa !761
  %33 = icmp sgt i32 %32, 0
  br i1 %33, label %34, label %50

34:                                               ; preds = %21
  %35 = load ptr, ptr %11, align 8, !tbaa !27
  %36 = load i32, ptr %13, align 4, !tbaa !3
  %37 = sext i32 %36 to i64
  %38 = getelementptr inbounds ptr, ptr %35, i64 %37
  %39 = load ptr, ptr %38, align 8, !tbaa !29
  %40 = call ptr @sqlite3_value_text(ptr noundef %39)
  %41 = call ptr (ptr, ...) @sqlite3_mprintf(ptr noundef @.str.47, ptr noundef %40)
  %42 = load ptr, ptr %12, align 8, !tbaa !757
  %43 = getelementptr inbounds nuw %struct.completion_cursor, ptr %42, i32 0, i32 4
  store ptr %41, ptr %43, align 8, !tbaa !762
  %44 = load ptr, ptr %12, align 8, !tbaa !757
  %45 = getelementptr inbounds nuw %struct.completion_cursor, ptr %44, i32 0, i32 4
  %46 = load ptr, ptr %45, align 8, !tbaa !762
  %47 = icmp eq ptr %46, null
  br i1 %47, label %48, label %49

48:                                               ; preds = %34
  store i32 7, ptr %6, align 4
  store i32 1, ptr %14, align 4
  br label %180

49:                                               ; preds = %34
  br label %50

50:                                               ; preds = %49, %21
  store i32 1, ptr %13, align 4, !tbaa !3
  br label %51

51:                                               ; preds = %50, %5
  %52 = load i32, ptr %8, align 4, !tbaa !3
  %53 = and i32 %52, 2
  %54 = icmp ne i32 %53, 0
  br i1 %54, label %55, label %85

55:                                               ; preds = %51
  %56 = load ptr, ptr %11, align 8, !tbaa !27
  %57 = load i32, ptr %13, align 4, !tbaa !3
  %58 = sext i32 %57 to i64
  %59 = getelementptr inbounds ptr, ptr %56, i64 %58
  %60 = load ptr, ptr %59, align 8, !tbaa !29
  %61 = call i32 @sqlite3_value_bytes(ptr noundef %60)
  %62 = load ptr, ptr %12, align 8, !tbaa !757
  %63 = getelementptr inbounds nuw %struct.completion_cursor, ptr %62, i32 0, i32 3
  store i32 %61, ptr %63, align 4, !tbaa !763
  %64 = load ptr, ptr %12, align 8, !tbaa !757
  %65 = getelementptr inbounds nuw %struct.completion_cursor, ptr %64, i32 0, i32 3
  %66 = load i32, ptr %65, align 4, !tbaa !763
  %67 = icmp sgt i32 %66, 0
  br i1 %67, label %68, label %84

68:                                               ; preds = %55
  %69 = load ptr, ptr %11, align 8, !tbaa !27
  %70 = load i32, ptr %13, align 4, !tbaa !3
  %71 = sext i32 %70 to i64
  %72 = getelementptr inbounds ptr, ptr %69, i64 %71
  %73 = load ptr, ptr %72, align 8, !tbaa !29
  %74 = call ptr @sqlite3_value_text(ptr noundef %73)
  %75 = call ptr (ptr, ...) @sqlite3_mprintf(ptr noundef @.str.47, ptr noundef %74)
  %76 = load ptr, ptr %12, align 8, !tbaa !757
  %77 = getelementptr inbounds nuw %struct.completion_cursor, ptr %76, i32 0, i32 5
  store ptr %75, ptr %77, align 8, !tbaa !764
  %78 = load ptr, ptr %12, align 8, !tbaa !757
  %79 = getelementptr inbounds nuw %struct.completion_cursor, ptr %78, i32 0, i32 5
  %80 = load ptr, ptr %79, align 8, !tbaa !764
  %81 = icmp eq ptr %80, null
  br i1 %81, label %82, label %83

82:                                               ; preds = %68
  store i32 7, ptr %6, align 4
  store i32 1, ptr %14, align 4
  br label %180

83:                                               ; preds = %68
  br label %84

84:                                               ; preds = %83, %55
  br label %85

85:                                               ; preds = %84, %51
  %86 = load ptr, ptr %12, align 8, !tbaa !757
  %87 = getelementptr inbounds nuw %struct.completion_cursor, ptr %86, i32 0, i32 5
  %88 = load ptr, ptr %87, align 8, !tbaa !764
  %89 = icmp ne ptr %88, null
  br i1 %89, label %90, label %173

90:                                               ; preds = %85
  %91 = load ptr, ptr %12, align 8, !tbaa !757
  %92 = getelementptr inbounds nuw %struct.completion_cursor, ptr %91, i32 0, i32 4
  %93 = load ptr, ptr %92, align 8, !tbaa !762
  %94 = icmp eq ptr %93, null
  br i1 %94, label %95, label %173

95:                                               ; preds = %90
  call void @llvm.lifetime.start.p0(i64 4, ptr %15) #14
  %96 = load ptr, ptr %12, align 8, !tbaa !757
  %97 = getelementptr inbounds nuw %struct.completion_cursor, ptr %96, i32 0, i32 3
  %98 = load i32, ptr %97, align 4, !tbaa !763
  store i32 %98, ptr %15, align 4, !tbaa !3
  br label %99

99:                                               ; preds = %135, %95
  %100 = load i32, ptr %15, align 4, !tbaa !3
  %101 = icmp sgt i32 %100, 0
  br i1 %101, label %102, label %133

102:                                              ; preds = %99
  %103 = call ptr @__ctype_b_loc() #16
  %104 = load ptr, ptr %103, align 8, !tbaa !54
  %105 = load ptr, ptr %12, align 8, !tbaa !757
  %106 = getelementptr inbounds nuw %struct.completion_cursor, ptr %105, i32 0, i32 5
  %107 = load ptr, ptr %106, align 8, !tbaa !764
  %108 = load i32, ptr %15, align 4, !tbaa !3
  %109 = sub nsw i32 %108, 1
  %110 = sext i32 %109 to i64
  %111 = getelementptr inbounds i8, ptr %107, i64 %110
  %112 = load i8, ptr %111, align 1, !tbaa !40
  %113 = sext i8 %112 to i32
  %114 = sext i32 %113 to i64
  %115 = getelementptr inbounds i16, ptr %104, i64 %114
  %116 = load i16, ptr %115, align 2, !tbaa !56
  %117 = zext i16 %116 to i32
  %118 = and i32 %117, 8
  %119 = icmp ne i32 %118, 0
  br i1 %119, label %131, label %120

120:                                              ; preds = %102
  %121 = load ptr, ptr %12, align 8, !tbaa !757
  %122 = getelementptr inbounds nuw %struct.completion_cursor, ptr %121, i32 0, i32 5
  %123 = load ptr, ptr %122, align 8, !tbaa !764
  %124 = load i32, ptr %15, align 4, !tbaa !3
  %125 = sub nsw i32 %124, 1
  %126 = sext i32 %125 to i64
  %127 = getelementptr inbounds i8, ptr %123, i64 %126
  %128 = load i8, ptr %127, align 1, !tbaa !40
  %129 = sext i8 %128 to i32
  %130 = icmp eq i32 %129, 95
  br label %131

131:                                              ; preds = %120, %102
  %132 = phi i1 [ true, %102 ], [ %130, %120 ]
  br label %133

133:                                              ; preds = %131, %99
  %134 = phi i1 [ false, %99 ], [ %132, %131 ]
  br i1 %134, label %135, label %138

135:                                              ; preds = %133
  %136 = load i32, ptr %15, align 4, !tbaa !3
  %137 = add nsw i32 %136, -1
  store i32 %137, ptr %15, align 4, !tbaa !3
  br label %99, !llvm.loop !765

138:                                              ; preds = %133
  %139 = load ptr, ptr %12, align 8, !tbaa !757
  %140 = getelementptr inbounds nuw %struct.completion_cursor, ptr %139, i32 0, i32 3
  %141 = load i32, ptr %140, align 4, !tbaa !763
  %142 = load i32, ptr %15, align 4, !tbaa !3
  %143 = sub nsw i32 %141, %142
  %144 = load ptr, ptr %12, align 8, !tbaa !757
  %145 = getelementptr inbounds nuw %struct.completion_cursor, ptr %144, i32 0, i32 2
  store i32 %143, ptr %145, align 8, !tbaa !761
  %146 = load ptr, ptr %12, align 8, !tbaa !757
  %147 = getelementptr inbounds nuw %struct.completion_cursor, ptr %146, i32 0, i32 2
  %148 = load i32, ptr %147, align 8, !tbaa !761
  %149 = icmp sgt i32 %148, 0
  br i1 %149, label %150, label %169

150:                                              ; preds = %138
  %151 = load ptr, ptr %12, align 8, !tbaa !757
  %152 = getelementptr inbounds nuw %struct.completion_cursor, ptr %151, i32 0, i32 2
  %153 = load i32, ptr %152, align 8, !tbaa !761
  %154 = load ptr, ptr %12, align 8, !tbaa !757
  %155 = getelementptr inbounds nuw %struct.completion_cursor, ptr %154, i32 0, i32 5
  %156 = load ptr, ptr %155, align 8, !tbaa !764
  %157 = load i32, ptr %15, align 4, !tbaa !3
  %158 = sext i32 %157 to i64
  %159 = getelementptr inbounds i8, ptr %156, i64 %158
  %160 = call ptr (ptr, ...) @sqlite3_mprintf(ptr noundef @.str.219, i32 noundef %153, ptr noundef %159)
  %161 = load ptr, ptr %12, align 8, !tbaa !757
  %162 = getelementptr inbounds nuw %struct.completion_cursor, ptr %161, i32 0, i32 4
  store ptr %160, ptr %162, align 8, !tbaa !762
  %163 = load ptr, ptr %12, align 8, !tbaa !757
  %164 = getelementptr inbounds nuw %struct.completion_cursor, ptr %163, i32 0, i32 4
  %165 = load ptr, ptr %164, align 8, !tbaa !762
  %166 = icmp eq ptr %165, null
  br i1 %166, label %167, label %168

167:                                              ; preds = %150
  store i32 7, ptr %6, align 4
  store i32 1, ptr %14, align 4
  br label %170

168:                                              ; preds = %150
  br label %169

169:                                              ; preds = %168, %138
  store i32 0, ptr %14, align 4
  br label %170

170:                                              ; preds = %169, %167
  call void @llvm.lifetime.end.p0(i64 4, ptr %15) #14
  %171 = load i32, ptr %14, align 4
  switch i32 %171, label %180 [
    i32 0, label %172
  ]

172:                                              ; preds = %170
  br label %173

173:                                              ; preds = %172, %90, %85
  %174 = load ptr, ptr %12, align 8, !tbaa !757
  %175 = getelementptr inbounds nuw %struct.completion_cursor, ptr %174, i32 0, i32 9
  store i64 0, ptr %175, align 8, !tbaa !766
  %176 = load ptr, ptr %12, align 8, !tbaa !757
  %177 = getelementptr inbounds nuw %struct.completion_cursor, ptr %176, i32 0, i32 10
  store i32 1, ptr %177, align 8, !tbaa !767
  %178 = load ptr, ptr %7, align 8, !tbaa !650
  %179 = call i32 @completionNext(ptr noundef %178)
  store i32 %179, ptr %6, align 4
  store i32 1, ptr %14, align 4
  br label %180

180:                                              ; preds = %173, %170, %82, %48
  call void @llvm.lifetime.end.p0(i64 4, ptr %13) #14
  call void @llvm.lifetime.end.p0(i64 8, ptr %12) #14
  %181 = load i32, ptr %6, align 4
  ret i32 %181
}