; Function Attrs: nounwind uwtable
define internal range(i32 0, 8) i32 @completionFilter(ptr noundef initializes((16, 24), (76, 80)) %0, i32 noundef %1, ptr readnone captures(none) %2, i32 %3, ptr noundef readonly captures(none) %4) #2 {
  %6 = getelementptr inbounds nuw i8, ptr %0, i64 24
  %7 = load ptr, ptr %6, align 8, !tbaa !805
  tail call void @sqlite3_free(ptr noundef %7) #43
  store ptr null, ptr %6, align 8, !tbaa !805
  %8 = getelementptr inbounds nuw i8, ptr %0, i64 16
  store i32 0, ptr %8, align 8, !tbaa !806
  %9 = getelementptr inbounds nuw i8, ptr %0, i64 32
  %10 = load ptr, ptr %9, align 8, !tbaa !807
  tail call void @sqlite3_free(ptr noundef %10) #43
  store ptr null, ptr %9, align 8, !tbaa !807
  %11 = getelementptr inbounds nuw i8, ptr %0, i64 20
  store i32 0, ptr %11, align 4, !tbaa !808
  %12 = getelementptr inbounds nuw i8, ptr %0, i64 56
  %13 = load ptr, ptr %12, align 8, !tbaa !809
  %14 = tail call i32 @sqlite3_finalize(ptr noundef %13) #43
  store ptr null, ptr %12, align 8, !tbaa !809
  %15 = getelementptr inbounds nuw i8, ptr %0, i64 76
  store i32 0, ptr %15, align 4, !tbaa !810
  %16 = and i32 %1, 1
  %.not = icmp eq i32 %16, 0
  br i1 %.not, label %26, label %17

17:                                               ; preds = %5
  %18 = load ptr, ptr %4, align 8, !tbaa !18
  %19 = tail call i32 @sqlite3_value_bytes(ptr noundef %18) #43
  store i32 %19, ptr %8, align 8, !tbaa !806
  %20 = icmp sgt i32 %19, 0
  br i1 %20, label %21, label %26

21:                                               ; preds = %17
  %22 = load ptr, ptr %4, align 8, !tbaa !18
  %23 = tail call ptr @sqlite3_value_text(ptr noundef %22) #43
  %24 = tail call ptr (ptr, ...) @sqlite3_mprintf(ptr noundef nonnull @.str.47, ptr noundef %23) #43
  store ptr %24, ptr %6, align 8, !tbaa !805
  %25 = icmp eq ptr %24, null
  br i1 %25, label %67, label %26

26:                                               ; preds = %17, %21, %5
  %.045 = phi i64 [ 0, %5 ], [ 1, %21 ], [ 1, %17 ]
  %27 = and i32 %1, 2
  %.not48 = icmp eq i32 %27, 0
  br i1 %.not48, label %38, label %28

28:                                               ; preds = %26
  %29 = getelementptr inbounds nuw ptr, ptr %4, i64 %.045
  %30 = load ptr, ptr %29, align 8, !tbaa !18
  %31 = tail call i32 @sqlite3_value_bytes(ptr noundef %30) #43
  store i32 %31, ptr %11, align 4, !tbaa !808
  %32 = icmp sgt i32 %31, 0
  br i1 %32, label %33, label %38

33:                                               ; preds = %28
  %34 = load ptr, ptr %29, align 8, !tbaa !18
  %35 = tail call ptr @sqlite3_value_text(ptr noundef %34) #43
  %36 = tail call ptr (ptr, ...) @sqlite3_mprintf(ptr noundef nonnull @.str.47, ptr noundef %35) #43
  store ptr %36, ptr %9, align 8, !tbaa !807
  %37 = icmp eq ptr %36, null
  br i1 %37, label %67, label %.thread

38:                                               ; preds = %28, %26
  %.pr = load ptr, ptr %9, align 8, !tbaa !807
  %.not49 = icmp eq ptr %.pr, null
  br i1 %.not49, label %.critedge52, label %.thread

.thread:                                          ; preds = %33, %38
  %39 = phi ptr [ %.pr, %38 ], [ %36, %33 ]
  %40 = load ptr, ptr %6, align 8, !tbaa !805
  %41 = icmp eq ptr %40, null
  br i1 %41, label %42, label %.critedge52

42:                                               ; preds = %.thread
  %43 = load i32, ptr %11, align 4, !tbaa !808
  %invariant.gep = getelementptr i8, ptr %39, i64 -1
  %44 = icmp sgt i32 %43, 0
  br i1 %44, label %.lr.ph, label %.critedge

.lr.ph:                                           ; preds = %42
  %45 = tail call ptr @__ctype_b_loc() #45
  %46 = load ptr, ptr %45, align 8, !tbaa !43
  br label %47

47:                                               ; preds = %.lr.ph, %.critedge2
  %.054 = phi i32 [ %43, %.lr.ph ], [ %55, %.critedge2 ]
  %48 = zext nneg i32 %.054 to i64
  %gep = getelementptr i8, ptr %invariant.gep, i64 %48
  %49 = load i8, ptr %gep, align 1, !tbaa !25
  %50 = sext i8 %49 to i64
  %51 = getelementptr inbounds i16, ptr %46, i64 %50
  %52 = load i16, ptr %51, align 2, !tbaa !45
  %53 = and i16 %52, 8
  %.not50 = icmp ne i16 %53, 0
  %54 = icmp eq i8 %49, 95
  %or.cond = or i1 %54, %.not50
  br i1 %or.cond, label %.critedge2, label %.critedge

.critedge2:                                       ; preds = %47
  %55 = add nsw i32 %.054, -1
  %56 = icmp sgt i32 %.054, 1
  br i1 %56, label %47, label %.critedge, !llvm.loop !811

.critedge:                                        ; preds = %.critedge2, %47, %42
  %.0.lcssa = phi i32 [ %43, %42 ], [ %.054, %47 ], [ 0, %.critedge2 ]
  %57 = sub nsw i32 %43, %.0.lcssa
  store i32 %57, ptr %8, align 8, !tbaa !806
  %58 = icmp sgt i32 %57, 0
  br i1 %58, label %59, label %.critedge52

59:                                               ; preds = %.critedge
  %60 = sext i32 %.0.lcssa to i64
  %61 = getelementptr inbounds i8, ptr %39, i64 %60
  %62 = tail call ptr (ptr, ...) @sqlite3_mprintf(ptr noundef nonnull @.str.219, i32 noundef %57, ptr noundef nonnull %61) #43
  store ptr %62, ptr %6, align 8, !tbaa !805
  %63 = icmp eq ptr %62, null
  br i1 %63, label %67, label %.critedge52

.critedge52:                                      ; preds = %.critedge, %59, %.thread, %38
  %64 = getelementptr inbounds nuw i8, ptr %0, i64 64
  store i64 0, ptr %64, align 8, !tbaa !812
  %65 = getelementptr inbounds nuw i8, ptr %0, i64 72
  store i32 1, ptr %65, align 8, !tbaa !813
  %66 = tail call i32 @completionNext(ptr noundef nonnull %0)
  br label %67

67:                                               ; preds = %59, %33, %21, %.critedge52
  %.046 = phi i32 [ %66, %.critedge52 ], [ 7, %21 ], [ 7, %33 ], [ 7, %59 ]
  ret i32 %.046
}